target datalayout = "e-m:e-p270:32:32-p271:32:32-p272:64:64-i64:64-i128:128-f80:128-n8:16:32:64-S128"
target triple = "x86_64-unknown-linux-gnu"

%struct.spinlock = type { %union.anon.10 }
%union.anon.10 = type { %struct.raw_spinlock }
%struct.raw_spinlock = type { %struct.qspinlock }
%struct.qspinlock = type { %union.anon.11 }
%union.anon.11 = type { %struct.atomic_t }
%struct.atomic_t = type { i32 }
%struct.hlist_head = type { ptr }
%struct.pcpu_hot = type { %union.anon.31 }
%union.anon.31 = type { %struct.anon.32, [16 x i8] }
%struct.anon.32 = type { ptr, i32, i32, i64, i64, ptr, i16, i8 }
%struct.list_head = type { ptr, ptr }

@hash_lock = internal global %struct.spinlock zeroinitializer, align 4
@posix_timers_hashtable = internal global [512 x %struct.hlist_head] zeroinitializer, align 16
@pcpu_hot = external dso_local global %struct.pcpu_hot, section ".data..percpu..shared_aligned", align 64
@.str.2 = private unnamed_addr constant [27 x i8] c"kernel/time/posix-timers.c\00", align 1

; Function Attrs: fn_ret_thunk_extern nounwind null_pointer_is_valid
define internal fastcc ptr @__lock_timer(i32 noundef %0, ptr nocapture noundef writeonly %1) unnamed_addr #1 align 16 {
  %3 = icmp slt i32 %0, 0
  br i1 %3, label %52, label %4

4:                                                ; preds = %2
  tail call void @__rcu_read_lock() #8
  %5 = tail call i64 asm "movq %gs:${1:P}, $0", "=r,p,~{dirflag},~{fpsr},~{flags}"(ptr nonnull @pcpu_hot) #9, !srcloc !6
  %6 = inttoptr i64 %5 to ptr
  %7 = getelementptr inbounds i8, ptr %6, i64 1880
  %8 = load ptr, ptr %7, align 8
  %9 = ptrtoint ptr %8 to i64
  %10 = lshr i64 %9, 32
  %11 = xor i64 %10, %9
  %12 = trunc i64 %11 to i32
  %13 = xor i32 %12, %0
  %14 = mul i32 %13, 1640531527
  %15 = lshr i32 %14, 23
  %16 = zext nneg i32 %15 to i64
  %17 = getelementptr [512 x %struct.hlist_head], ptr @posix_timers_hashtable, i64 0, i64 %16
  %18 = load volatile ptr, ptr %17, align 8
  %19 = icmp eq ptr %18, null
  %20 = getelementptr i8, ptr %18, i64 -16
  %21 = icmp eq ptr %20, null
  %22 = or i1 %19, %21
  br i1 %22, label %39, label %23

23:                                               ; preds = %32, %4
  %24 = phi ptr [ %37, %32 ], [ %20, %4 ]
  %25 = getelementptr inbounds i8, ptr %24, i64 96
  %26 = load volatile ptr, ptr %25, align 8
  %27 = icmp eq ptr %26, %8
  br i1 %27, label %28, label %32

28:                                               ; preds = %23
  %29 = getelementptr inbounds i8, ptr %24, i64 52
  %30 = load i32, ptr %29, align 4
  %31 = icmp eq i32 %30, %0
  br i1 %31, label %39, label %32

32:                                               ; preds = %28, %23
  %33 = getelementptr inbounds i8, ptr %24, i64 16
  %34 = load volatile ptr, ptr %33, align 8
  %35 = icmp eq ptr %34, null
  %36 = getelementptr i8, ptr %34, i64 -16
  %37 = select i1 %35, ptr null, ptr %36
  %38 = icmp eq ptr %37, null
  br i1 %38, label %39, label %23, !llvm.loop !7

39:                                               ; preds = %32, %28, %4
  %40 = phi ptr [ null, %4 ], [ %24, %28 ], [ null, %32 ]
  %41 = icmp eq ptr %40, null
  br i1 %41, label %50, label %42

42:                                               ; preds = %39
  %43 = getelementptr inbounds i8, ptr %40, i64 32
  %44 = tail call i64 @_raw_spin_lock_irqsave(ptr noundef %43) #8
  store i64 %44, ptr %1, align 8
  %45 = getelementptr inbounds i8, ptr %40, i64 96
  %46 = load ptr, ptr %45, align 8
  %47 = load ptr, ptr %7, align 8
  %48 = icmp eq ptr %46, %47
  br i1 %48, label %50, label %49

49:                                               ; preds = %42
  tail call void @_raw_spin_unlock_irqrestore(ptr noundef %43, i64 noundef %44) #8
  br label %50

50:                                               ; preds = %49, %42, %39
  %51 = phi ptr [ %40, %42 ], [ null, %49 ], [ null, %39 ]
  tail call void @__rcu_read_unlock() #8
  br label %52

52:                                               ; preds = %50, %2
  %53 = phi ptr [ null, %2 ], [ %51, %50 ]
  ret ptr %53
}

; Function Attrs: fn_ret_thunk_extern nounwind null_pointer_is_valid
define dso_local void @exit_itimers(ptr nocapture noundef readonly %0) local_unnamed_addr #1 align 16 {
  %2 = alloca i64, align 8
  %3 = alloca %struct.list_head, align 8
  call void @llvm.lifetime.start.p0(i64 16, ptr nonnull %3) #8
  call void @llvm.memset.p0.i64(ptr noundef nonnull align 8 dereferenceable(16) %3, i8 0, i64 16, i1 false), !annotation !5
  %4 = getelementptr inbounds i8, ptr %0, i64 1880
  %5 = load ptr, ptr %4, align 8
  %6 = getelementptr inbounds i8, ptr %5, i64 136
  %7 = load volatile ptr, ptr %6, align 8
  %8 = icmp eq ptr %7, %6
  br i1 %8, label %77, label %9

9:                                                ; preds = %1
  %10 = getelementptr inbounds i8, ptr %0, i64 1888
  %11 = load ptr, ptr %10, align 32
  tail call void @_raw_spin_lock_irq(ptr noundef %11) #8
  %12 = load ptr, ptr %4, align 8
  %13 = getelementptr inbounds i8, ptr %12, i64 136
  %14 = load ptr, ptr %13, align 8
  store ptr %14, ptr %3, align 8
  %15 = getelementptr inbounds i8, ptr %14, i64 8
  store ptr %3, ptr %15, align 8
  %16 = getelementptr inbounds i8, ptr %12, i64 144
  %17 = load ptr, ptr %16, align 8
  %18 = getelementptr inbounds i8, ptr %3, i64 8
  store ptr %17, ptr %18, align 8
  store ptr %3, ptr %17, align 8
  store volatile ptr %13, ptr %13, align 8
  store volatile ptr %13, ptr %16, align 8
  %19 = load ptr, ptr %10, align 32
  call void @_raw_spin_unlock_irq(ptr noundef %19) #8
  %20 = load volatile ptr, ptr %3, align 8
  %21 = icmp eq ptr %20, %3
  br i1 %21, label %77, label %22

22:                                               ; preds = %74, %9
  %23 = phi ptr [ %75, %74 ], [ %20, %9 ]
  call void @llvm.lifetime.start.p0(i64 8, ptr nonnull %2) #8
  store i64 0, ptr %2, align 8, !annotation !5
  %24 = getelementptr inbounds i8, ptr %23, i64 32
  %25 = call i64 @_raw_spin_lock_irqsave(ptr noundef %24) #8
  store i64 %25, ptr %2, align 8
  %26 = getelementptr inbounds i8, ptr %23, i64 40
  %27 = getelementptr inbounds i8, ptr %23, i64 52
  br label %28

28:                                               ; preds = %50, %22
  %29 = load ptr, ptr %26, align 8
  %30 = icmp eq ptr %29, null
  br i1 %30, label %35, label %31

31:                                               ; preds = %28
  %32 = getelementptr inbounds i8, ptr %29, i64 64
  %33 = load ptr, ptr %32, align 8
  %34 = icmp eq ptr %33, null
  br i1 %34, label %35, label %36, !prof !11

35:                                               ; preds = %31, %28
  call void asm sideeffect "401: nop\0A\09.pushsection .discard.instr_begin\0A\09.long 401b - .\0A\09.popsection\0A\09", "i,~{dirflag},~{fpsr},~{flags}"(i32 401) #8, !srcloc !18
  call void asm sideeffect "1:\09.byte 0x0f, 0x0b\0A.pushsection __bug_table,\22aw\22\0A2:\09.long 1b - .\09# bug_entry::bug_addr\0A\09.long ${0:c} - .\09# bug_entry::file\0A\09.word ${1:c}\09# bug_entry::line\0A\09.word ${2:c}\09# bug_entry::flags\0A\09.org 2b+${3:c}\0A.popsection\0A998:\0A\09.pushsection .discard.reachable\0A\09.long 998b\0A\09.popsection\0A\09", "i,i,i,i,~{dirflag},~{fpsr},~{flags}"(ptr nonnull @.str.2, i32 1000, i32 2307, i64 12) #8, !srcloc !19
  call void asm sideeffect "402: nop\0A\09.pushsection .discard.instr_end\0A\09.long 402b - .\0A\09.popsection\0A\09", "i,~{dirflag},~{fpsr},~{flags}"(i32 402) #8, !srcloc !20
  br label %38

36:                                               ; preds = %31
  %37 = call i32 %33(ptr noundef %23) #8
  br label %38

38:                                               ; preds = %36, %35
  %39 = phi i32 [ %37, %36 ], [ -22, %35 ]
  %40 = icmp eq i32 %39, 1
  br i1 %40, label %41, label %54

41:                                               ; preds = %38
  %42 = load volatile ptr, ptr %26, align 8
  %43 = load volatile i32, ptr %27, align 4
  call void @__rcu_read_lock() #8
  %44 = load i64, ptr %2, align 8
  call void @_raw_spin_unlock_irqrestore(ptr noundef %24, i64 noundef %44) #8
  %45 = getelementptr inbounds i8, ptr %42, i64 120
  %46 = load ptr, ptr %45, align 8
  %47 = icmp eq ptr %46, null
  br i1 %47, label %48, label %49, !prof !11

48:                                               ; preds = %41
  call void asm sideeffect "397: nop\0A\09.pushsection .discard.instr_begin\0A\09.long 397b - .\0A\09.popsection\0A\09", "i,~{dirflag},~{fpsr},~{flags}"(i32 397) #8, !srcloc !21
  call void asm sideeffect "1:\09.byte 0x0f, 0x0b\0A.pushsection __bug_table,\22aw\22\0A2:\09.long 1b - .\09# bug_entry::bug_addr\0A\09.long ${0:c} - .\09# bug_entry::file\0A\09.word ${1:c}\09# bug_entry::line\0A\09.word ${2:c}\09# bug_entry::flags\0A\09.org 2b+${3:c}\0A.popsection\0A998:\0A\09.pushsection .discard.reachable\0A\09.long 998b\0A\09.popsection\0A\09", "i,i,i,i,~{dirflag},~{fpsr},~{flags}"(ptr nonnull @.str.2, i32 851, i32 2307, i64 12) #8, !srcloc !22
  call void asm sideeffect "398: nop\0A\09.pushsection .discard.instr_end\0A\09.long 398b - .\0A\09.popsection\0A\09", "i,~{dirflag},~{fpsr},~{flags}"(i32 398) #8, !srcloc !23
  br label %50

49:                                               ; preds = %41
  call void %46(ptr noundef %23) #8
  br label %50

50:                                               ; preds = %49, %48
  call void @__rcu_read_unlock() #8
  %51 = call fastcc ptr @__lock_timer(i32 noundef %43, ptr noundef nonnull %2)
  %52 = icmp eq ptr %51, %23
  br i1 %52, label %28, label %53, !prof !15

53:                                               ; preds = %50
  call void asm sideeffect "404: nop\0A\09.pushsection .discard.instr_begin\0A\09.long 404b - .\0A\09.popsection\0A\09", "i,~{dirflag},~{fpsr},~{flags}"(i32 404) #8, !srcloc !24
  call void asm sideeffect "1:\09.byte 0x0f, 0x0b\0A.pushsection __bug_table,\22aw\22\0A2:\09.long 1b - .\09# bug_entry::bug_addr\0A\09.long ${0:c} - .\09# bug_entry::file\0A\09.word ${1:c}\09# bug_entry::line\0A\09.word ${2:c}\09# bug_entry::flags\0A\09.org 2b+${3:c}\0A.popsection\0A998:\0A\09.pushsection .discard.reachable\0A\09.long 998b\0A\09.popsection\0A\09", "i,i,i,i,~{dirflag},~{fpsr},~{flags}"(ptr nonnull @.str.2, i32 1069, i32 2307, i64 12) #8, !srcloc !25
  call void asm sideeffect "405: nop\0A\09.pushsection .discard.instr_end\0A\09.long 405b - .\0A\09.popsection\0A\09", "i,~{dirflag},~{fpsr},~{flags}"(i32 405) #8, !srcloc !26
  br label %74

54:                                               ; preds = %38
  %55 = getelementptr inbounds i8, ptr %23, i64 8
  %56 = load ptr, ptr %55, align 8
  %57 = load ptr, ptr %23, align 8
  %58 = getelementptr inbounds i8, ptr %57, i64 8
  store ptr %56, ptr %58, align 8
  store volatile ptr %57, ptr %56, align 8
  store ptr inttoptr (i64 -2401263026318606080 to ptr), ptr %23, align 8
  store ptr inttoptr (i64 -2401263026318606046 to ptr), ptr %55, align 8
  %59 = getelementptr inbounds i8, ptr %23, i64 96
  store volatile ptr null, ptr %59, align 8
  %60 = load i64, ptr %2, align 8
  call void @_raw_spin_unlock_irqrestore(ptr noundef %24, i64 noundef %60) #8
  call void @_raw_spin_lock(ptr noundef nonnull @hash_lock) #8
  %61 = getelementptr inbounds i8, ptr %23, i64 16
  %62 = load ptr, ptr %61, align 8
  %63 = getelementptr inbounds i8, ptr %23, i64 24
  %64 = load ptr, ptr %63, align 8
  store volatile ptr %62, ptr %64, align 8
  %65 = icmp eq ptr %62, null
  br i1 %65, label %68, label %66

66:                                               ; preds = %54
  %67 = getelementptr inbounds i8, ptr %62, i64 8
  store volatile ptr %64, ptr %67, align 8
  br label %68

68:                                               ; preds = %66, %54
  store volatile ptr inttoptr (i64 -2401263026318606046 to ptr), ptr %63, align 8
  call void @_raw_spin_unlock(ptr noundef nonnull @hash_lock) #8
  %69 = getelementptr inbounds i8, ptr %23, i64 104
  %70 = load ptr, ptr %69, align 8
  call void @put_pid(ptr noundef %70) #8
  %71 = getelementptr inbounds i8, ptr %23, i64 112
  %72 = load ptr, ptr %71, align 8
  call void @sigqueue_free(ptr noundef %72) #8
  %73 = getelementptr inbounds i8, ptr %23, i64 240
  call void @call_rcu(ptr noundef %73, ptr noundef nonnull @k_itimer_rcu_free) #8
  br label %74

74:                                               ; preds = %68, %53
  call void @llvm.lifetime.end.p0(i64 8, ptr nonnull %2) #8
  %75 = load volatile ptr, ptr %3, align 8
  %76 = icmp eq ptr %75, %3
  br i1 %76, label %77, label %22, !llvm.loop !27

77:                                               ; preds = %74, %9, %1
  call void @llvm.lifetime.end.p0(i64 16, ptr nonnull %3) #8
  ret void
}