; Function Attrs: fn_ret_thunk_extern nounwind null_pointer_is_valid
define dso_local void @exit_itimers(ptr nocapture noundef readonly %0) local_unnamed_addr #1 align 16 {
  %2 = alloca %struct.list_head, align 8
  call void @llvm.lifetime.start.p0(i64 16, ptr nonnull %2) #8
  %3 = getelementptr inbounds i8, ptr %0, i64 1880
  %4 = load ptr, ptr %3, align 8
  %5 = getelementptr inbounds i8, ptr %4, i64 136
  %6 = load volatile ptr, ptr %5, align 8
  %7 = icmp eq ptr %6, %5
  br i1 %7, label %.loopexit7, label %8

8:                                                ; preds = %1
  %9 = getelementptr inbounds i8, ptr %0, i64 1888
  %10 = load ptr, ptr %9, align 32
  tail call void @_raw_spin_lock_irq(ptr noundef %10) #8
  %11 = load ptr, ptr %3, align 8
  %12 = getelementptr inbounds i8, ptr %11, i64 136
  %13 = load ptr, ptr %12, align 8
  store ptr %13, ptr %2, align 8
  %14 = getelementptr inbounds i8, ptr %13, i64 8
  store ptr %2, ptr %14, align 8
  %15 = getelementptr inbounds i8, ptr %11, i64 144
  %16 = load ptr, ptr %15, align 8
  %17 = getelementptr inbounds i8, ptr %2, i64 8
  store ptr %16, ptr %17, align 8
  store ptr %2, ptr %16, align 8
  store volatile ptr %12, ptr %12, align 8
  store volatile ptr %12, ptr %15, align 8
  %18 = load ptr, ptr %9, align 32
  call void @_raw_spin_unlock_irq(ptr noundef %18) #8
  %19 = load volatile ptr, ptr %2, align 8
  %20 = icmp eq ptr %19, %2
  br i1 %20, label %.loopexit7, label %.preheader

.preheader:                                       ; preds = %8, %110
  %21 = phi ptr [ %111, %110 ], [ %19, %8 ]
  %22 = getelementptr inbounds i8, ptr %21, i64 32
  %23 = call i64 @_raw_spin_lock_irqsave(ptr noundef %22) #8
  %24 = getelementptr inbounds i8, ptr %21, i64 40
  %25 = getelementptr inbounds i8, ptr %21, i64 52
  br label %26

26:                                               ; preds = %__lock_timer.exit, %.preheader
  %.0 = phi i64 [ %23, %.preheader ], [ %.2, %__lock_timer.exit ]
  %27 = load ptr, ptr %24, align 8
  %28 = icmp eq ptr %27, null
  br i1 %28, label %.thread, label %29

29:                                               ; preds = %26
  %30 = getelementptr inbounds i8, ptr %27, i64 64
  %31 = load ptr, ptr %30, align 8
  %32 = icmp eq ptr %31, null
  br i1 %32, label %.thread, label %33, !prof !11

.thread:                                          ; preds = %26, %29
  call void asm sideeffect "401: nop\0A\09.pushsection .discard.instr_begin\0A\09.long 401b - .\0A\09.popsection\0A\09", "i,~{dirflag},~{fpsr},~{flags}"(i32 401) #8, !srcloc !18
  call void asm sideeffect "1:\09.byte 0x0f, 0x0b\0A.pushsection __bug_table,\22aw\22\0A2:\09.long 1b - .\09# bug_entry::bug_addr\0A\09.long ${0:c} - .\09# bug_entry::file\0A\09.word ${1:c}\09# bug_entry::line\0A\09.word ${2:c}\09# bug_entry::flags\0A\09.org 2b+${3:c}\0A.popsection\0A998:\0A\09.pushsection .discard.reachable\0A\09.long 998b\0A\09.popsection\0A\09", "i,i,i,i,~{dirflag},~{fpsr},~{flags}"(ptr nonnull @.str.2, i32 1000, i32 2307, i64 12) #8, !srcloc !19
  call void asm sideeffect "402: nop\0A\09.pushsection .discard.instr_end\0A\09.long 402b - .\0A\09.popsection\0A\09", "i,~{dirflag},~{fpsr},~{flags}"(i32 402) #8, !srcloc !20
  br label %.loopexit

33:                                               ; preds = %29
  %34 = call i32 %31(ptr noundef %21) #8
  %35 = icmp eq i32 %34, 1
  br i1 %35, label %36, label %.loopexit

36:                                               ; preds = %33
  %37 = load volatile ptr, ptr %24, align 8
  %38 = load volatile i32, ptr %25, align 4
  call void @__rcu_read_lock() #8
  call void @_raw_spin_unlock_irqrestore(ptr noundef %22, i64 noundef %.0) #8
  %39 = getelementptr inbounds i8, ptr %37, i64 120
  %40 = load ptr, ptr %39, align 8
  %41 = icmp eq ptr %40, null
  br i1 %41, label %42, label %43, !prof !11

42:                                               ; preds = %36
  call void asm sideeffect "397: nop\0A\09.pushsection .discard.instr_begin\0A\09.long 397b - .\0A\09.popsection\0A\09", "i,~{dirflag},~{fpsr},~{flags}"(i32 397) #8, !srcloc !22
  call void asm sideeffect "1:\09.byte 0x0f, 0x0b\0A.pushsection __bug_table,\22aw\22\0A2:\09.long 1b - .\09# bug_entry::bug_addr\0A\09.long ${0:c} - .\09# bug_entry::file\0A\09.word ${1:c}\09# bug_entry::line\0A\09.word ${2:c}\09# bug_entry::flags\0A\09.org 2b+${3:c}\0A.popsection\0A998:\0A\09.pushsection .discard.reachable\0A\09.long 998b\0A\09.popsection\0A\09", "i,i,i,i,~{dirflag},~{fpsr},~{flags}"(ptr nonnull @.str.2, i32 851, i32 2307, i64 12) #8, !srcloc !23
  call void asm sideeffect "398: nop\0A\09.pushsection .discard.instr_end\0A\09.long 398b - .\0A\09.popsection\0A\09", "i,~{dirflag},~{fpsr},~{flags}"(i32 398) #8, !srcloc !24
  br label %44

43:                                               ; preds = %36
  call void %40(ptr noundef %21) #8
  br label %44

44:                                               ; preds = %43, %42
  call void @__rcu_read_unlock() #8
  %45 = icmp slt i32 %38, 0
  br i1 %45, label %__lock_timer.exit, label %46

46:                                               ; preds = %44
  call void @__rcu_read_lock() #8
  %47 = call i64 asm "movq %gs:${1:P}, $0", "=r,p,~{dirflag},~{fpsr},~{flags}"(ptr nonnull @pcpu_hot) #9, !srcloc !5
  %48 = inttoptr i64 %47 to ptr
  %49 = getelementptr inbounds i8, ptr %48, i64 1880
  %50 = load ptr, ptr %49, align 8
  %51 = ptrtoint ptr %50 to i64
  %52 = lshr i64 %51, 32
  %53 = xor i64 %52, %51
  %54 = trunc i64 %53 to i32
  %55 = xor i32 %38, %54
  %56 = mul i32 %55, 1640531527
  %57 = lshr i32 %56, 23
  %58 = zext nneg i32 %57 to i64
  %59 = getelementptr [512 x %struct.hlist_head], ptr @posix_timers_hashtable, i64 0, i64 %58
  %60 = load volatile ptr, ptr %59, align 8
  %61 = icmp eq ptr %60, null
  %62 = getelementptr i8, ptr %60, i64 -16
  %63 = icmp eq ptr %62, null
  %64 = or i1 %61, %63
  br i1 %64, label %.thread.i, label %.preheader.i

.preheader.i:                                     ; preds = %46, %73
  %65 = phi ptr [ %77, %73 ], [ %62, %46 ]
  %66 = getelementptr inbounds i8, ptr %65, i64 96
  %67 = load volatile ptr, ptr %66, align 8
  %68 = icmp eq ptr %67, %50
  br i1 %68, label %69, label %73

69:                                               ; preds = %.preheader.i
  %70 = getelementptr inbounds i8, ptr %65, i64 52
  %71 = load i32, ptr %70, align 4
  %72 = icmp eq i32 %71, %38
  br i1 %72, label %80, label %73

73:                                               ; preds = %69, %.preheader.i
  %74 = getelementptr inbounds i8, ptr %65, i64 16
  %75 = load volatile ptr, ptr %74, align 8
  %76 = icmp eq ptr %75, null
  %77 = getelementptr i8, ptr %75, i64 -16
  %78 = icmp eq ptr %77, null
  %79 = or i1 %76, %78
  br i1 %79, label %.thread.i, label %.preheader.i, !llvm.loop !6

80:                                               ; preds = %69
  %81 = getelementptr inbounds i8, ptr %65, i64 96
  %82 = getelementptr inbounds i8, ptr %65, i64 32
  %83 = call i64 @_raw_spin_lock_irqsave(ptr noundef %82) #8
  %84 = load ptr, ptr %81, align 8
  %85 = load ptr, ptr %49, align 8
  %86 = icmp eq ptr %84, %85
  br i1 %86, label %.thread.i, label %87

87:                                               ; preds = %80
  call void @_raw_spin_unlock_irqrestore(ptr noundef %82, i64 noundef %83) #8
  br label %.thread.i

.thread.i:                                        ; preds = %73, %87, %80, %46
  %.1 = phi i64 [ %.0, %46 ], [ %83, %80 ], [ %83, %87 ], [ %.0, %73 ]
  %88 = phi ptr [ null, %46 ], [ %65, %80 ], [ null, %87 ], [ null, %73 ]
  call void @__rcu_read_unlock() #8
  br label %__lock_timer.exit

__lock_timer.exit:                                ; preds = %44, %.thread.i
  %.2 = phi i64 [ %.0, %44 ], [ %.1, %.thread.i ]
  %89 = phi ptr [ null, %44 ], [ %88, %.thread.i ]
  %90 = icmp eq ptr %89, %21
  br i1 %90, label %26, label %91, !prof !15

91:                                               ; preds = %__lock_timer.exit
  call void asm sideeffect "404: nop\0A\09.pushsection .discard.instr_begin\0A\09.long 404b - .\0A\09.popsection\0A\09", "i,~{dirflag},~{fpsr},~{flags}"(i32 404) #8, !srcloc !25
  call void asm sideeffect "1:\09.byte 0x0f, 0x0b\0A.pushsection __bug_table,\22aw\22\0A2:\09.long 1b - .\09# bug_entry::bug_addr\0A\09.long ${0:c} - .\09# bug_entry::file\0A\09.word ${1:c}\09# bug_entry::line\0A\09.word ${2:c}\09# bug_entry::flags\0A\09.org 2b+${3:c}\0A.popsection\0A998:\0A\09.pushsection .discard.reachable\0A\09.long 998b\0A\09.popsection\0A\09", "i,i,i,i,~{dirflag},~{fpsr},~{flags}"(ptr nonnull @.str.2, i32 1069, i32 2307, i64 12) #8, !srcloc !26
  call void asm sideeffect "405: nop\0A\09.pushsection .discard.instr_end\0A\09.long 405b - .\0A\09.popsection\0A\09", "i,~{dirflag},~{fpsr},~{flags}"(i32 405) #8, !srcloc !27
  br label %110

.loopexit:                                        ; preds = %33, %.thread
  %92 = getelementptr inbounds i8, ptr %21, i64 8
  %93 = load ptr, ptr %92, align 8
  %94 = load ptr, ptr %21, align 8
  %95 = getelementptr inbounds i8, ptr %94, i64 8
  store ptr %93, ptr %95, align 8
  store volatile ptr %94, ptr %93, align 8
  store ptr inttoptr (i64 -2401263026318606080 to ptr), ptr %21, align 8
  store ptr inttoptr (i64 -2401263026318606046 to ptr), ptr %92, align 8
  %96 = getelementptr inbounds i8, ptr %21, i64 96
  store volatile ptr null, ptr %96, align 8
  call void @_raw_spin_unlock_irqrestore(ptr noundef %22, i64 noundef %.0) #8
  call void @_raw_spin_lock(ptr noundef nonnull @hash_lock) #8
  %97 = getelementptr inbounds i8, ptr %21, i64 16
  %98 = load ptr, ptr %97, align 8
  %99 = getelementptr inbounds i8, ptr %21, i64 24
  %100 = load ptr, ptr %99, align 8
  store volatile ptr %98, ptr %100, align 8
  %101 = icmp eq ptr %98, null
  br i1 %101, label %104, label %102

102:                                              ; preds = %.loopexit
  %103 = getelementptr inbounds i8, ptr %98, i64 8
  store volatile ptr %100, ptr %103, align 8
  br label %104

104:                                              ; preds = %102, %.loopexit
  store volatile ptr inttoptr (i64 -2401263026318606046 to ptr), ptr %99, align 8
  call void @_raw_spin_unlock(ptr noundef nonnull @hash_lock) #8
  %105 = getelementptr inbounds i8, ptr %21, i64 104
  %106 = load ptr, ptr %105, align 8
  call void @put_pid(ptr noundef %106) #8
  %107 = getelementptr inbounds i8, ptr %21, i64 112
  %108 = load ptr, ptr %107, align 8
  call void @sigqueue_free(ptr noundef %108) #8
  %109 = getelementptr inbounds i8, ptr %21, i64 240
  call void @call_rcu(ptr noundef %109, ptr noundef nonnull @k_itimer_rcu_free) #8
  br label %110

110:                                              ; preds = %104, %91
  %111 = load volatile ptr, ptr %2, align 8
  %112 = icmp eq ptr %111, %2
  br i1 %112, label %.loopexit7, label %.preheader, !llvm.loop !28

.loopexit7:                                       ; preds = %110, %8, %1
  call void @llvm.lifetime.end.p0(i64 16, ptr nonnull %2) #8
  ret void
}